target datalayout = "e-m:e-p270:32:32-p271:32:32-p272:64:64-i64:64-i128:128-f80:128-n8:16:32:64-S128"
target triple = "x86_64-unknown-linux-gnu"

%class.btAlignedObjectArray.12 = type <{ %class.btAlignedAllocator.13, [3 x i8], i32, i32, [4 x i8], ptr, i8, [7 x i8] }>
%class.btAlignedAllocator.13 = type { i8 }
%struct.btDbvtBroadphase = type { %class.btBroadphaseInterface, [2 x %struct.btDbvt], [3 x ptr], ptr, float, i32, i32, i32, i32, i32, i32, i32, i32, float, i32, i32, i32, i8, i8, i8, i8, %class.btAlignedObjectArray.0 }
%class.btBroadphaseInterface = type { ptr }
%struct.btDbvt = type { ptr, ptr, i32, i32, i32, [4 x i8], %class.btAlignedObjectArray }
%class.btAlignedObjectArray = type <{ %class.btAlignedAllocator, [3 x i8], i32, i32, [4 x i8], ptr, i8, [7 x i8] }>
%class.btAlignedAllocator = type { i8 }
%class.btAlignedObjectArray.0 = type <{ %class.btAlignedAllocator.1, [3 x i8], i32, i32, [4 x i8], ptr, i8, [7 x i8] }>
%class.btAlignedAllocator.1 = type { i8 }

; Function Attrs: mustprogress nounwind uwtable
define linkonce_odr dso_local void @_ZN20btAlignedObjectArrayIPK10btDbvtNodeE4initEv(ptr noundef nonnull align 8 dereferenceable(25) %this) #1 comdat align 2 {
entry:
  %this.addr = alloca ptr, align 8
  store ptr %this, ptr %this.addr, align 8
  %this1 = load ptr, ptr %this.addr, align 8
  %m_ownsMemory = getelementptr inbounds %class.btAlignedObjectArray.12, ptr %this1, i32 0, i32 6
  store i8 1, ptr %m_ownsMemory, align 8
  %m_data = getelementptr inbounds %class.btAlignedObjectArray.12, ptr %this1, i32 0, i32 5
  store ptr null, ptr %m_data, align 8
  %m_size = getelementptr inbounds %class.btAlignedObjectArray.12, ptr %this1, i32 0, i32 2
  store i32 0, ptr %m_size, align 4
  %m_capacity = getelementptr inbounds %class.btAlignedObjectArray.12, ptr %this1, i32 0, i32 3
  store i32 0, ptr %m_capacity, align 8
  ret void
}

; Function Attrs: mustprogress nounwind uwtable
define linkonce_odr dso_local void @_ZN18btAlignedAllocatorIPK10btDbvtNodeLj16EEC2Ev(ptr noundef nonnull align 1 dereferenceable(1) %this) unnamed_addr #1 comdat align 2 {
entry:
  %this.addr = alloca ptr, align 8
  store ptr %this, ptr %this.addr, align 8
  ret void
}

; Function Attrs: mustprogress nounwind uwtable
define linkonce_odr dso_local void @_ZN20btAlignedObjectArrayIS_IPK10btDbvtNodeEE4initEv(ptr noundef nonnull align 8 dereferenceable(25) %this) #1 comdat align 2 {
entry:
  %this.addr = alloca ptr, align 8
  store ptr %this, ptr %this.addr, align 8
  %this1 = load ptr, ptr %this.addr, align 8
  %m_ownsMemory = getelementptr inbounds %class.btAlignedObjectArray.0, ptr %this1, i32 0, i32 6
  store i8 1, ptr %m_ownsMemory, align 8
  %m_data = getelementptr inbounds %class.btAlignedObjectArray.0, ptr %this1, i32 0, i32 5
  store ptr null, ptr %m_data, align 8
  %m_size = getelementptr inbounds %class.btAlignedObjectArray.0, ptr %this1, i32 0, i32 2
  store i32 0, ptr %m_size, align 4
  %m_capacity = getelementptr inbounds %class.btAlignedObjectArray.0, ptr %this1, i32 0, i32 3
  store i32 0, ptr %m_capacity, align 8
  ret void
}

; Function Attrs: mustprogress nounwind uwtable
define linkonce_odr dso_local void @_ZN18btAlignedAllocatorI20btAlignedObjectArrayIPK10btDbvtNodeELj16EEC2Ev(ptr noundef nonnull align 1 dereferenceable(1) %this) unnamed_addr #1 comdat align 2 {
entry:
  %this.addr = alloca ptr, align 8
  store ptr %this, ptr %this.addr, align 8
  ret void
}

; Function Attrs: mustprogress nounwind uwtable
define linkonce_odr dso_local void @_ZN21btBroadphaseInterfaceD2Ev(ptr noundef nonnull align 8 dereferenceable(8) %this) unnamed_addr #1 comdat align 2 {
entry:
  %this.addr = alloca ptr, align 8
  store ptr %this, ptr %this.addr, align 8
  ret void
}

; Function Attrs: mustprogress uwtable
define linkonce_odr dso_local void @_ZN20btAlignedObjectArrayIPK10btDbvtNodeEC2Ev(ptr noundef nonnull align 8 dereferenceable(25) %this) unnamed_addr #2 comdat align 2 {
entry:
  %this.addr = alloca ptr, align 8
  store ptr %this, ptr %this.addr, align 8
  %this1 = load ptr, ptr %this.addr, align 8
  %m_allocator = getelementptr inbounds %class.btAlignedObjectArray.12, ptr %this1, i32 0, i32 0
  call void @_ZN18btAlignedAllocatorIPK10btDbvtNodeLj16EEC2Ev(ptr noundef nonnull align 1 dereferenceable(1) %m_allocator)
  call void @_ZN20btAlignedObjectArrayIPK10btDbvtNodeE4initEv(ptr noundef nonnull align 8 dereferenceable(25) %this1)
  ret void
}

; Function Attrs: mustprogress nounwind uwtable
define linkonce_odr dso_local void @_ZN28btHashedOverlappingPairCachedlEPvS0_(ptr noundef %0, ptr noundef %1) #1 comdat align 2 {
entry:
  %.addr = alloca ptr, align 8
  %.addr1 = alloca ptr, align 8
  store ptr %0, ptr %.addr, align 8
  store ptr %1, ptr %.addr1, align 8
  ret void
}

; Function Attrs: mustprogress nounwind uwtable
define linkonce_odr dso_local noundef ptr @_ZN28btHashedOverlappingPairCachenwEmPv(i64 noundef %0, ptr noundef %ptr) #1 comdat align 2 {
entry:
  %.addr = alloca i64, align 8
  %ptr.addr = alloca ptr, align 8
  store i64 %0, ptr %.addr, align 8
  store ptr %ptr, ptr %ptr.addr, align 8
  %1 = load ptr, ptr %ptr.addr, align 8
  ret ptr %1
}

; Function Attrs: mustprogress uwtable
define linkonce_odr dso_local void @_ZN20btAlignedObjectArrayIS_IPK10btDbvtNodeEEC2Ev(ptr noundef nonnull align 8 dereferenceable(25) %this) unnamed_addr #2 comdat align 2 {
entry:
  %this.addr = alloca ptr, align 8
  store ptr %this, ptr %this.addr, align 8
  %this1 = load ptr, ptr %this.addr, align 8
  %m_allocator = getelementptr inbounds %class.btAlignedObjectArray.0, ptr %this1, i32 0, i32 0
  call void @_ZN18btAlignedAllocatorI20btAlignedObjectArrayIPK10btDbvtNodeELj16EEC2Ev(ptr noundef nonnull align 1 dereferenceable(1) %m_allocator)
  call void @_ZN20btAlignedObjectArrayIS_IPK10btDbvtNodeEE4initEv(ptr noundef nonnull align 8 dereferenceable(25) %this1)
  ret void
}

; Function Attrs: mustprogress nounwind uwtable
define linkonce_odr dso_local void @_ZN21btBroadphaseInterfaceC2Ev(ptr noundef nonnull align 8 dereferenceable(8) %this) unnamed_addr #1 comdat align 2 {
entry:
  %this.addr = alloca ptr, align 8
  store ptr %this, ptr %this.addr, align 8
  %this1 = load ptr, ptr %this.addr, align 8
  store ptr getelementptr inbounds ({ [16 x ptr] }, ptr @_ZTV21btBroadphaseInterface, i32 0, i32 0, i32 2), ptr %this1, align 8
  ret void
}

; Function Attrs: mustprogress uwtable
define dso_local void @_ZN16btDbvtBroadphaseC2EP22btOverlappingPairCache(ptr noundef nonnull align 8 dereferenceable(256) %this, ptr noundef %paircache) unnamed_addr #2 align 2 personality ptr @__gxx_personality_v0 {
entry:
  %this.addr = alloca ptr, align 8
  %paircache.addr = alloca ptr, align 8
  %exn.slot = alloca ptr, align 8
  %ehselector.slot = alloca i32, align 4
  %saved-rvalue = alloca ptr, align 8
  %saved-rvalue9 = alloca ptr, align 8
  %cleanup.cond = alloca i1, align 1
  %i = alloca i32, align 4
  %ref.tmp = alloca %class.btAlignedObjectArray.12, align 8
  store ptr %this, ptr %this.addr, align 8
  store ptr %paircache, ptr %paircache.addr, align 8
  %this1 = load ptr, ptr %this.addr, align 8
  call void @_ZN21btBroadphaseInterfaceC2Ev(ptr noundef nonnull align 8 dereferenceable(8) %this1) #10
  store ptr getelementptr inbounds ({ [16 x ptr] }, ptr @_ZTV16btDbvtBroadphase, i32 0, i32 0, i32 2), ptr %this1, align 8
  %m_sets = getelementptr inbounds %struct.btDbvtBroadphase, ptr %this1, i32 0, i32 1
  %array.begin = getelementptr inbounds [2 x %struct.btDbvt], ptr %m_sets, i32 0, i32 0
  %arrayctor.end = getelementptr inbounds %struct.btDbvt, ptr %array.begin, i64 2
  br label %arrayctor.loop

arrayctor.loop:                                   ; preds = %invoke.cont, %entry
  %arrayctor.cur = phi ptr [ %array.begin, %entry ], [ %arrayctor.next, %invoke.cont ]
  invoke void @_ZN6btDbvtC1Ev(ptr noundef nonnull align 8 dereferenceable(64) %arrayctor.cur)
          to label %invoke.cont unwind label %lpad

invoke.cont:                                      ; preds = %arrayctor.loop
  %arrayctor.next = getelementptr inbounds %struct.btDbvt, ptr %arrayctor.cur, i64 1
  %arrayctor.done = icmp eq ptr %arrayctor.next, %arrayctor.end
  br i1 %arrayctor.done, label %arrayctor.cont, label %arrayctor.loop

arrayctor.cont:                                   ; preds = %invoke.cont
  %m_rayTestStacks = getelementptr inbounds %struct.btDbvtBroadphase, ptr %this1, i32 0, i32 21
  invoke void @_ZN20btAlignedObjectArrayIS_IPK10btDbvtNodeEEC2Ev(ptr noundef nonnull align 8 dereferenceable(25) %m_rayTestStacks)
          to label %invoke.cont4 unwind label %lpad3

invoke.cont4:                                     ; preds = %arrayctor.cont
  %m_deferedcollide = getelementptr inbounds %struct.btDbvtBroadphase, ptr %this1, i32 0, i32 18
  store i8 0, ptr %m_deferedcollide, align 1
  %m_needcleanup = getelementptr inbounds %struct.btDbvtBroadphase, ptr %this1, i32 0, i32 19
  store i8 1, ptr %m_needcleanup, align 2
  %0 = load ptr, ptr %paircache.addr, align 8
  %cmp = icmp ne ptr %0, null
  %cond = select i1 %cmp, i1 false, i1 true
  %m_releasepaircache = getelementptr inbounds %struct.btDbvtBroadphase, ptr %this1, i32 0, i32 17
  %frombool = zext i1 %cond to i8
  store i8 %frombool, ptr %m_releasepaircache, align 4
  %m_prediction = getelementptr inbounds %struct.btDbvtBroadphase, ptr %this1, i32 0, i32 4
  store float 0.000000e+00, ptr %m_prediction, align 8
  %m_stageCurrent = getelementptr inbounds %struct.btDbvtBroadphase, ptr %this1, i32 0, i32 5
  store i32 0, ptr %m_stageCurrent, align 4
  %m_fixedleft = getelementptr inbounds %struct.btDbvtBroadphase, ptr %this1, i32 0, i32 10
  store i32 0, ptr %m_fixedleft, align 8
  %m_fupdates = getelementptr inbounds %struct.btDbvtBroadphase, ptr %this1, i32 0, i32 6
  store i32 1, ptr %m_fupdates, align 8
  %m_dupdates = getelementptr inbounds %struct.btDbvtBroadphase, ptr %this1, i32 0, i32 7
  store i32 0, ptr %m_dupdates, align 4
  %m_cupdates = getelementptr inbounds %struct.btDbvtBroadphase, ptr %this1, i32 0, i32 8
  store i32 10, ptr %m_cupdates, align 8
  %m_newpairs = getelementptr inbounds %struct.btDbvtBroadphase, ptr %this1, i32 0, i32 9
  store i32 1, ptr %m_newpairs, align 4
  %m_updates_call = getelementptr inbounds %struct.btDbvtBroadphase, ptr %this1, i32 0, i32 11
  store i32 0, ptr %m_updates_call, align 4
  %m_updates_done = getelementptr inbounds %struct.btDbvtBroadphase, ptr %this1, i32 0, i32 12
  store i32 0, ptr %m_updates_done, align 8
  %m_updates_ratio = getelementptr inbounds %struct.btDbvtBroadphase, ptr %this1, i32 0, i32 13
  store float 0.000000e+00, ptr %m_updates_ratio, align 4
  %1 = load ptr, ptr %paircache.addr, align 8
  %tobool = icmp ne ptr %1, null
  store i1 false, ptr %cleanup.cond, align 1
  br i1 %tobool, label %cond.true, label %cond.false

cond.true:                                        ; preds = %invoke.cont4
  %2 = load ptr, ptr %paircache.addr, align 8
  br label %cond.end

cond.false:                                       ; preds = %invoke.cont4
  %call = invoke noundef ptr @_Z22btAlignedAllocInternalmi(i64 noundef 120, i32 noundef 16)
          to label %invoke.cont6 unwind label %lpad5

invoke.cont6:                                     ; preds = %cond.false
  %call8 = invoke noundef ptr @_ZN28btHashedOverlappingPairCachenwEmPv(i64 noundef 120, ptr noundef %call)
          to label %invoke.cont7 unwind label %lpad5

invoke.cont7:                                     ; preds = %invoke.cont6
  store ptr %call8, ptr %saved-rvalue, align 8
  store ptr %call, ptr %saved-rvalue9, align 8
  store i1 true, ptr %cleanup.cond, align 1
  invoke void @_ZN28btHashedOverlappingPairCacheC1Ev(ptr noundef nonnull align 8 dereferenceable(120) %call8)
          to label %invoke.cont11 unwind label %lpad10

invoke.cont11:                                    ; preds = %invoke.cont7
  br label %cond.end

cond.end:                                         ; preds = %invoke.cont11, %cond.true
  %cond12 = phi ptr [ %2, %cond.true ], [ %call8, %invoke.cont11 ]
  %m_paircache = getelementptr inbounds %struct.btDbvtBroadphase, ptr %this1, i32 0, i32 3
  store ptr %cond12, ptr %m_paircache, align 8
  %m_gid = getelementptr inbounds %struct.btDbvtBroadphase, ptr %this1, i32 0, i32 16
  store i32 0, ptr %m_gid, align 8
  %m_pid = getelementptr inbounds %struct.btDbvtBroadphase, ptr %this1, i32 0, i32 14
  store i32 0, ptr %m_pid, align 8
  %m_cid = getelementptr inbounds %struct.btDbvtBroadphase, ptr %this1, i32 0, i32 15
  store i32 0, ptr %m_cid, align 4
  store i32 0, ptr %i, align 4
  br label %for.cond

for.cond:                                         ; preds = %for.inc, %cond.end
  %3 = load i32, ptr %i, align 4
  %cmp13 = icmp sle i32 %3, 2
  br i1 %cmp13, label %for.body, label %for.end

for.body:                                         ; preds = %for.cond
  %m_stageRoots = getelementptr inbounds %struct.btDbvtBroadphase, ptr %this1, i32 0, i32 2
  %4 = load i32, ptr %i, align 4
  %idxprom = sext i32 %4 to i64
  %arrayidx = getelementptr inbounds [3 x ptr], ptr %m_stageRoots, i64 0, i64 %idxprom
  store ptr null, ptr %arrayidx, align 8
  br label %for.inc

for.inc:                                          ; preds = %for.body
  %5 = load i32, ptr %i, align 4
  %inc = add nsw i32 %5, 1
  store i32 %inc, ptr %i, align 4
  br label %for.cond, !llvm.loop !5

lpad:                                             ; preds = %arrayctor.loop
  %6 = landingpad { ptr, i32 }
          cleanup
  %7 = extractvalue { ptr, i32 } %6, 0
  store ptr %7, ptr %exn.slot, align 8
  %8 = extractvalue { ptr, i32 } %6, 1
  store i32 %8, ptr %ehselector.slot, align 4
  %arraydestroy.isempty = icmp eq ptr %array.begin, %arrayctor.cur
  br i1 %arraydestroy.isempty, label %arraydestroy.done2, label %arraydestroy.body

arraydestroy.body:                                ; preds = %arraydestroy.body, %lpad
  %arraydestroy.elementPast = phi ptr [ %arrayctor.cur, %lpad ], [ %arraydestroy.element, %arraydestroy.body ]
  %arraydestroy.element = getelementptr inbounds %struct.btDbvt, ptr %arraydestroy.elementPast, i64 -1
  call void @_ZN6btDbvtD1Ev(ptr noundef nonnull align 8 dereferenceable(64) %arraydestroy.element) #10
  %arraydestroy.done = icmp eq ptr %arraydestroy.element, %array.begin
  br i1 %arraydestroy.done, label %arraydestroy.done2, label %arraydestroy.body

arraydestroy.done2:                               ; preds = %arraydestroy.body, %lpad
  br label %ehcleanup25

lpad3:                                            ; preds = %arrayctor.cont
  %9 = landingpad { ptr, i32 }
          cleanup
  %10 = extractvalue { ptr, i32 } %9, 0
  store ptr %10, ptr %exn.slot, align 8
  %11 = extractvalue { ptr, i32 } %9, 1
  store i32 %11, ptr %ehselector.slot, align 4
  br label %ehcleanup18

lpad5:                                            ; preds = %for.end, %invoke.cont6, %cond.false
  %12 = landingpad { ptr, i32 }
          cleanup
  %13 = extractvalue { ptr, i32 } %12, 0
  store ptr %13, ptr %exn.slot, align 8
  %14 = extractvalue { ptr, i32 } %12, 1
  store i32 %14, ptr %ehselector.slot, align 4
  br label %ehcleanup

lpad10:                                           ; preds = %invoke.cont7
  %15 = landingpad { ptr, i32 }
          cleanup
  %16 = extractvalue { ptr, i32 } %15, 0
  store ptr %16, ptr %exn.slot, align 8
  %17 = extractvalue { ptr, i32 } %15, 1
  store i32 %17, ptr %ehselector.slot, align 4
  %cleanup.is_active = load i1, ptr %cleanup.cond, align 1
  br i1 %cleanup.is_active, label %cleanup.action, label %cleanup.done

cleanup.action:                                   ; preds = %lpad10
  %18 = load ptr, ptr %saved-rvalue, align 8
  %19 = load ptr, ptr %saved-rvalue9, align 8
  call void @_ZN28btHashedOverlappingPairCachedlEPvS0_(ptr noundef %18, ptr noundef %19) #10
  br label %cleanup.done

cleanup.done:                                     ; preds = %cleanup.action, %lpad10
  br label %ehcleanup

for.end:                                          ; preds = %for.cond
  %m_rayTestStacks14 = getelementptr inbounds %struct.btDbvtBroadphase, ptr %this1, i32 0, i32 21
  invoke void @_ZN20btAlignedObjectArrayIPK10btDbvtNodeEC2Ev(ptr noundef nonnull align 8 dereferenceable(25) %ref.tmp)
          to label %invoke.cont15 unwind label %lpad5

invoke.cont15:                                    ; preds = %for.end
  invoke void @_ZN20btAlignedObjectArrayIS_IPK10btDbvtNodeEE6resizeEiRKS3_(ptr noundef nonnull align 8 dereferenceable(25) %m_rayTestStacks14, i32 noundef 1, ptr noundef nonnull align 8 dereferenceable(25) %ref.tmp)
          to label %invoke.cont17 unwind label %lpad16

invoke.cont17:                                    ; preds = %invoke.cont15
  call void @_ZN20btAlignedObjectArrayIPK10btDbvtNodeED2Ev(ptr noundef nonnull align 8 dereferenceable(25) %ref.tmp) #10
  ret void

lpad16:                                           ; preds = %invoke.cont15
  %20 = landingpad { ptr, i32 }
          cleanup
  %21 = extractvalue { ptr, i32 } %20, 0
  store ptr %21, ptr %exn.slot, align 8
  %22 = extractvalue { ptr, i32 } %20, 1
  store i32 %22, ptr %ehselector.slot, align 4
  call void @_ZN20btAlignedObjectArrayIPK10btDbvtNodeED2Ev(ptr noundef nonnull align 8 dereferenceable(25) %ref.tmp) #10
  br label %ehcleanup

ehcleanup:                                        ; preds = %lpad16, %cleanup.done, %lpad5
  call void @_ZN20btAlignedObjectArrayIS_IPK10btDbvtNodeEED2Ev(ptr noundef nonnull align 8 dereferenceable(25) %m_rayTestStacks) #10
  br label %ehcleanup18

ehcleanup18:                                      ; preds = %ehcleanup, %lpad3
  %array.begin19 = getelementptr inbounds [2 x %struct.btDbvt], ptr %m_sets, i32 0, i32 0
  %23 = getelementptr inbounds %struct.btDbvt, ptr %array.begin19, i64 2
  br label %arraydestroy.body20

arraydestroy.body20:                              ; preds = %arraydestroy.body20, %ehcleanup18
  %arraydestroy.elementPast21 = phi ptr [ %23, %ehcleanup18 ], [ %arraydestroy.element22, %arraydestroy.body20 ]
  %arraydestroy.element22 = getelementptr inbounds %struct.btDbvt, ptr %arraydestroy.elementPast21, i64 -1
  call void @_ZN6btDbvtD1Ev(ptr noundef nonnull align 8 dereferenceable(64) %arraydestroy.element22) #10
  %arraydestroy.done23 = icmp eq ptr %arraydestroy.element22, %array.begin19
  br i1 %arraydestroy.done23, label %arraydestroy.done24, label %arraydestroy.body20

arraydestroy.done24:                              ; preds = %arraydestroy.body20
  br label %ehcleanup25

ehcleanup25:                                      ; preds = %arraydestroy.done24, %arraydestroy.done2
  call void @_ZN21btBroadphaseInterfaceD2Ev(ptr noundef nonnull align 8 dereferenceable(8) %this1) #10
  br label %eh.resume

eh.resume:                                        ; preds = %ehcleanup25
  %exn = load ptr, ptr %exn.slot, align 8
  %sel = load i32, ptr %ehselector.slot, align 4
  %lpad.val = insertvalue { ptr, i32 } poison, ptr %exn, 0
  %lpad.val26 = insertvalue { ptr, i32 } %lpad.val, i32 %sel, 1
  resume { ptr, i32 } %lpad.val26
}