; Function Attrs: mustprogress uwtable
define dso_local void @_ZN16btDbvtBroadphaseC2EP22btOverlappingPairCache(ptr noundef nonnull align 8 dereferenceable(256) %this, ptr noundef %paircache) unnamed_addr #0 align 2 personality ptr @__gxx_personality_v0 {
entry:
  %ref.tmp = alloca %class.btAlignedObjectArray.12, align 8
  store ptr getelementptr inbounds ({ [16 x ptr] }, ptr @_ZTV16btDbvtBroadphase, i64 0, i32 0, i64 2), ptr %this, align 8
  br label %arrayctor.loop

arrayctor.loop:                                   ; preds = %invoke.cont, %entry
  %arrayctor.cur.idx = phi i64 [ 8, %entry ], [ %arrayctor.cur.add, %invoke.cont ]
  %arrayctor.cur.ptr.ptr = getelementptr inbounds i8, ptr %this, i64 %arrayctor.cur.idx
  invoke void @_ZN6btDbvtC1Ev(ptr noundef nonnull align 8 dereferenceable(64) %arrayctor.cur.ptr.ptr)
          to label %invoke.cont unwind label %lpad

invoke.cont:                                      ; preds = %arrayctor.loop
  %arrayctor.cur.add = add nuw nsw i64 %arrayctor.cur.idx, 64
  %arrayctor.done = icmp eq i64 %arrayctor.cur.add, 136
  br i1 %arrayctor.done, label %invoke.cont4, label %arrayctor.loop

invoke.cont4:                                     ; preds = %invoke.cont
  %m_rayTestStacks = getelementptr inbounds i8, ptr %this, i64 224
  %m_ownsMemory.i.i = getelementptr inbounds i8, ptr %this, i64 248
  store i8 1, ptr %m_ownsMemory.i.i, align 8
  %m_data.i.i = getelementptr inbounds i8, ptr %this, i64 240
  store ptr null, ptr %m_data.i.i, align 8
  %m_size.i.i = getelementptr inbounds i8, ptr %this, i64 228
  store i32 0, ptr %m_size.i.i, align 4
  %m_capacity.i.i = getelementptr inbounds i8, ptr %this, i64 232
  store i32 0, ptr %m_capacity.i.i, align 8
  %m_deferedcollide = getelementptr inbounds i8, ptr %this, i64 221
  store i8 0, ptr %m_deferedcollide, align 1
  %m_needcleanup = getelementptr inbounds i8, ptr %this, i64 222
  store i8 1, ptr %m_needcleanup, align 2
  %cmp.not = icmp eq ptr %paircache, null
  %m_releasepaircache = getelementptr inbounds i8, ptr %this, i64 220
  %frombool = zext i1 %cmp.not to i8
  store i8 %frombool, ptr %m_releasepaircache, align 4
  %m_prediction = getelementptr inbounds i8, ptr %this, i64 168
  store float 0.000000e+00, ptr %m_prediction, align 8
  %m_stageCurrent = getelementptr inbounds i8, ptr %this, i64 172
  store <4 x i32> <i32 0, i32 1, i32 0, i32 10>, ptr %m_stageCurrent, align 4
  %m_newpairs = getelementptr inbounds i8, ptr %this, i64 188
  store <4 x i32> <i32 1, i32 0, i32 0, i32 0>, ptr %m_newpairs, align 4
  %m_updates_ratio = getelementptr inbounds i8, ptr %this, i64 204
  store float 0.000000e+00, ptr %m_updates_ratio, align 4
  br i1 %cmp.not, label %cond.false, label %cond.end

cond.false:                                       ; preds = %invoke.cont4
  %call = invoke noundef ptr @_Z22btAlignedAllocInternalmi(i64 noundef 120, i32 noundef 16)
          to label %invoke.cont6 unwind label %lpad5

invoke.cont6:                                     ; preds = %cond.false
  invoke void @_ZN28btHashedOverlappingPairCacheC1Ev(ptr noundef nonnull align 8 dereferenceable(120) %call)
          to label %cond.end unwind label %lpad10

cond.end:                                         ; preds = %invoke.cont4, %invoke.cont6
  %cond12 = phi ptr [ %call, %invoke.cont6 ], [ %paircache, %invoke.cont4 ]
  %m_paircache = getelementptr inbounds i8, ptr %this, i64 160
  store ptr %cond12, ptr %m_paircache, align 8
  %m_gid = getelementptr inbounds i8, ptr %this, i64 216
  store i32 0, ptr %m_gid, align 8
  %m_pid = getelementptr inbounds i8, ptr %this, i64 208
  store i32 0, ptr %m_pid, align 8
  %m_cid = getelementptr inbounds i8, ptr %this, i64 212
  store i32 0, ptr %m_cid, align 4
  %m_stageRoots = getelementptr inbounds i8, ptr %this, i64 136
  tail call void @llvm.memset.p0.i64(ptr noundef nonnull align 8 dereferenceable(24) %m_stageRoots, i8 0, i64 24, i1 false)
  %m_ownsMemory.i.i8 = getelementptr inbounds i8, ptr %ref.tmp, i64 24
  store i8 1, ptr %m_ownsMemory.i.i8, align 8
  %m_data.i.i9 = getelementptr inbounds i8, ptr %ref.tmp, i64 16
  store ptr null, ptr %m_data.i.i9, align 8
  %m_size.i.i10 = getelementptr inbounds i8, ptr %ref.tmp, i64 4
  store i32 0, ptr %m_size.i.i10, align 4
  %m_capacity.i.i11 = getelementptr inbounds i8, ptr %ref.tmp, i64 8
  store i32 0, ptr %m_capacity.i.i11, align 8
  invoke void @_ZN20btAlignedObjectArrayIS_IPK10btDbvtNodeEE6resizeEiRKS3_(ptr noundef nonnull align 8 dereferenceable(25) %m_rayTestStacks, i32 noundef 1, ptr noundef nonnull align 8 dereferenceable(25) %ref.tmp)
          to label %invoke.cont17 unwind label %lpad16

lpad:                                             ; preds = %arrayctor.loop
  %0 = landingpad { ptr, i32 }
          cleanup
  %arraydestroy.isempty = icmp eq i64 %arrayctor.cur.idx, 8
  br i1 %arraydestroy.isempty, label %ehcleanup25, label %arraydestroy.body

arraydestroy.body:                                ; preds = %lpad, %arraydestroy.body
  %arraydestroy.elementPast.idx = phi i64 [ %arraydestroy.elementPast.add, %arraydestroy.body ], [ %arrayctor.cur.idx, %lpad ]
  %arraydestroy.elementPast.add = add nsw i64 %arraydestroy.elementPast.idx, -64
  %arraydestroy.element.ptr = getelementptr inbounds i8, ptr %this, i64 %arraydestroy.elementPast.add
  tail call void @_ZN6btDbvtD1Ev(ptr noundef nonnull align 8 dereferenceable(64) %arraydestroy.element.ptr) #15
  %arraydestroy.done = icmp eq i64 %arraydestroy.elementPast.add, 8
  br i1 %arraydestroy.done, label %ehcleanup25, label %arraydestroy.body

lpad5:                                            ; preds = %cond.false
  %1 = landingpad { ptr, i32 }
          cleanup
  br label %ehcleanup

lpad10:                                           ; preds = %invoke.cont6
  %2 = landingpad { ptr, i32 }
          cleanup
  br label %ehcleanup

invoke.cont17:                                    ; preds = %cond.end
  %3 = load ptr, ptr %m_data.i.i9, align 8
  %tobool.not.i.i.i = icmp eq ptr %3, null
  br i1 %tobool.not.i.i.i, label %_ZN20btAlignedObjectArrayIPK10btDbvtNodeED2Ev.exit, label %if.then.i.i.i

if.then.i.i.i:                                    ; preds = %invoke.cont17
  %4 = load i8, ptr %m_ownsMemory.i.i8, align 8
  %5 = and i8 %4, 1
  %tobool2.not.i.i.i = icmp eq i8 %5, 0
  br i1 %tobool2.not.i.i.i, label %_ZN20btAlignedObjectArrayIPK10btDbvtNodeED2Ev.exit, label %if.then3.i.i.i

if.then3.i.i.i:                                   ; preds = %if.then.i.i.i
  invoke void @_Z21btAlignedFreeInternalPv(ptr noundef nonnull %3)
          to label %_ZN20btAlignedObjectArrayIPK10btDbvtNodeED2Ev.exit unwind label %terminate.lpad.i

terminate.lpad.i:                                 ; preds = %if.then3.i.i.i
  %6 = landingpad { ptr, i32 }
          catch ptr null
  %7 = extractvalue { ptr, i32 } %6, 0
  call void @__clang_call_terminate(ptr %7) #16
  unreachable

_ZN20btAlignedObjectArrayIPK10btDbvtNodeED2Ev.exit: ; preds = %invoke.cont17, %if.then.i.i.i, %if.then3.i.i.i
  ret void

lpad16:                                           ; preds = %cond.end
  %8 = landingpad { ptr, i32 }
          cleanup
  call void @_ZN20btAlignedObjectArrayIPK10btDbvtNodeED2Ev(ptr noundef nonnull align 8 dereferenceable(25) %ref.tmp) #15
  br label %ehcleanup

ehcleanup:                                        ; preds = %lpad10, %lpad16, %lpad5
  %.pn = phi { ptr, i32 } [ %8, %lpad16 ], [ %1, %lpad5 ], [ %2, %lpad10 ]
  call void @_ZN20btAlignedObjectArrayIS_IPK10btDbvtNodeEED2Ev(ptr noundef nonnull align 8 dereferenceable(25) %m_rayTestStacks) #15
  br label %arraydestroy.body20

arraydestroy.body20:                              ; preds = %arraydestroy.body20, %ehcleanup
  %arraydestroy.elementPast21.idx = phi i64 [ 136, %ehcleanup ], [ %arraydestroy.elementPast21.add, %arraydestroy.body20 ]
  %arraydestroy.elementPast21.add = add nsw i64 %arraydestroy.elementPast21.idx, -64
  %arraydestroy.element22.ptr = getelementptr inbounds i8, ptr %this, i64 %arraydestroy.elementPast21.add
  call void @_ZN6btDbvtD1Ev(ptr noundef nonnull align 8 dereferenceable(64) %arraydestroy.element22.ptr) #15
  %arraydestroy.done23 = icmp eq i64 %arraydestroy.elementPast21.add, 8
  br i1 %arraydestroy.done23, label %ehcleanup25, label %arraydestroy.body20

ehcleanup25:                                      ; preds = %arraydestroy.body, %arraydestroy.body20, %lpad
  %.pn.pn.pn = phi { ptr, i32 } [ %0, %lpad ], [ %.pn, %arraydestroy.body20 ], [ %0, %arraydestroy.body ]
  resume { ptr, i32 } %.pn.pn.pn
}